target datalayout = "e-m:e-p270:32:32-p271:32:32-p272:64:64-i64:64-i128:128-f80:128-n8:16:32:64-S128"
target triple = "x86_64-pc-linux-gnu"

@.str.18 = private unnamed_addr constant [33 x i8] c"../openssl/test/evp_extra_test.c\00", align 1
@.str.100 = private unnamed_addr constant [7 x i8] c"sha256\00", align 1
@.str.177 = private unnamed_addr constant [4 x i8] c"ctx\00", align 1
@.str.262 = private unnamed_addr constant [9 x i8] c"SHA2-256\00", align 1
@.str.597 = private unnamed_addr constant [43 x i8] c"EVP_MD_names_do_all(sha256, md_names, ctx)\00", align 1
@.str.598 = private unnamed_addr constant [8 x i8] c"success\00", align 1
@success = internal global i32 1, align 4

; Function Attrs: nounwind uwtable
define internal i32 @test_names_do_all() #0 {
  %1 = alloca ptr, align 8
  %2 = alloca ptr, align 8
  %3 = alloca i32, align 4
  call void @llvm.lifetime.start.p0(i64 8, ptr %1) #8
  %4 = call ptr @OSSL_LIB_CTX_new()
  store ptr %4, ptr %1, align 8, !tbaa !11
  call void @llvm.lifetime.start.p0(i64 8, ptr %2) #8
  store ptr null, ptr %2, align 8, !tbaa !19
  call void @llvm.lifetime.start.p0(i64 4, ptr %3) #8
  store i32 0, ptr %3, align 4, !tbaa !9
  %5 = load ptr, ptr %1, align 8, !tbaa !11
  %6 = call i32 @test_ptr(ptr noundef @.str.18, i32 noundef 4582, ptr noundef @.str.177, ptr noundef %5)
  %7 = icmp ne i32 %6, 0
  br i1 %7, label %9, label %8

8:                                                ; preds = %0
  br label %33

9:                                                ; preds = %0
  %10 = load ptr, ptr %1, align 8, !tbaa !11
  %11 = call ptr @EVP_MD_fetch(ptr noundef %10, ptr noundef @.str.262, ptr noundef null)
  store ptr %11, ptr %2, align 8, !tbaa !19
  %12 = load ptr, ptr %2, align 8, !tbaa !19
  %13 = call i32 @test_ptr(ptr noundef @.str.18, i32 noundef 4586, ptr noundef @.str.100, ptr noundef %12)
  %14 = icmp ne i32 %13, 0
  br i1 %14, label %16, label %15

15:                                               ; preds = %9
  br label %33

16:                                               ; preds = %9
  %17 = load ptr, ptr %2, align 8, !tbaa !19
  %18 = load ptr, ptr %1, align 8, !tbaa !11
  %19 = call i32 @EVP_MD_names_do_all(ptr noundef %17, ptr noundef @md_names, ptr noundef %18)
  %20 = icmp ne i32 %19, 0
  %21 = zext i1 %20 to i32
  %22 = call i32 @test_true(ptr noundef @.str.18, i32 noundef 4593, ptr noundef @.str.597, i32 noundef %21)
  %23 = icmp ne i32 %22, 0
  br i1 %23, label %25, label %24

24:                                               ; preds = %16
  br label %33

25:                                               ; preds = %16
  %26 = load i32, ptr @success, align 4, !tbaa !9
  %27 = icmp ne i32 %26, 0
  %28 = zext i1 %27 to i32
  %29 = call i32 @test_true(ptr noundef @.str.18, i32 noundef 4596, ptr noundef @.str.598, i32 noundef %28)
  %30 = icmp ne i32 %29, 0
  br i1 %30, label %32, label %31

31:                                               ; preds = %25
  br label %33

32:                                               ; preds = %25
  store i32 1, ptr %3, align 4, !tbaa !9
  br label %33

33:                                               ; preds = %32, %31, %24, %15, %8
  %34 = load ptr, ptr %2, align 8, !tbaa !19
  call void @EVP_MD_free(ptr noundef %34)
  %35 = load ptr, ptr %1, align 8, !tbaa !11
  call void @OSSL_LIB_CTX_free(ptr noundef %35)
  %36 = load i32, ptr %3, align 4, !tbaa !9
  call void @llvm.lifetime.end.p0(i64 4, ptr %3) #8
  call void @llvm.lifetime.end.p0(i64 8, ptr %2) #8
  call void @llvm.lifetime.end.p0(i64 8, ptr %1) #8
  ret i32 %36
}