; Function Attrs: nounwind uwtable
define internal range(i32 0, 2) i32 @test_names_do_all() #1 {
  %1 = tail call ptr @OSSL_LIB_CTX_new() #9
  %2 = tail call i32 @test_ptr(ptr noundef nonnull @.str.18, i32 noundef 4582, ptr noundef nonnull @.str.177, ptr noundef %1) #9
  %.not = icmp eq i32 %2, 0
  br i1 %.not, label %14, label %3

3:                                                ; preds = %0
  %4 = tail call ptr @EVP_MD_fetch(ptr noundef %1, ptr noundef nonnull @.str.262, ptr noundef null) #9
  %5 = tail call i32 @test_ptr(ptr noundef nonnull @.str.18, i32 noundef 4586, ptr noundef nonnull @.str.100, ptr noundef %4) #9
  %.not8 = icmp eq i32 %5, 0
  br i1 %.not8, label %14, label %6

6:                                                ; preds = %3
  %7 = tail call i32 @EVP_MD_names_do_all(ptr noundef %4, ptr noundef nonnull @md_names, ptr noundef %1) #9
  %8 = icmp ne i32 %7, 0
  %9 = zext i1 %8 to i32
  %10 = tail call i32 @test_true(ptr noundef nonnull @.str.18, i32 noundef 4593, ptr noundef nonnull @.str.597, i32 noundef %9) #9
  %.not9 = icmp eq i32 %10, 0
  br i1 %.not9, label %14, label %11

11:                                               ; preds = %6
  %.b = load i1, ptr @success, align 4
  %not..b = xor i1 %.b, true
  %12 = zext i1 %not..b to i32
  %13 = tail call i32 @test_true(ptr noundef nonnull @.str.18, i32 noundef 4596, ptr noundef nonnull @.str.598, i32 noundef %12) #9
  %.not10 = icmp ne i32 %13, 0
  %spec.select = zext i1 %.not10 to i32
  br label %14

14:                                               ; preds = %11, %6, %3, %0
  %.07 = phi ptr [ %4, %6 ], [ %4, %3 ], [ null, %0 ], [ %4, %11 ]
  %.0 = phi i32 [ 0, %6 ], [ 0, %3 ], [ 0, %0 ], [ %spec.select, %11 ]
  tail call void @EVP_MD_free(ptr noundef %.07) #9
  tail call void @OSSL_LIB_CTX_free(ptr noundef %1) #9
  ret i32 %.0
}